target datalayout = "e-m:e-p270:32:32-p271:32:32-p272:64:64-i64:64-i128:128-f80:128-n8:16:32:64-S128"
target triple = "x86_64-pc-linux-gnu"

%struct.doall_dgst_digests = type { ptr, i32 }
%struct.obj_name_st = type { i32, i32, ptr, ptr }

@.str.72 = private unnamed_addr constant [2 x i8] c"\0A\00", align 1
@.str.102 = private unnamed_addr constant [4 x i8] c"rsa\00", align 1
@.str.103 = private unnamed_addr constant [4 x i8] c"RSA\00", align 1
@.str.104 = private unnamed_addr constant [7 x i8] c"-%-25s\00", align 1
@.str.105 = private unnamed_addr constant [2 x i8] c" \00", align 1

; Function Attrs: nounwind uwtable
define internal void @show_digests(ptr noundef %0, ptr noundef %1) #0 {
  %3 = alloca ptr, align 8
  %4 = alloca ptr, align 8
  %5 = alloca ptr, align 8
  %6 = alloca ptr, align 8
  %7 = alloca i32, align 4
  store ptr %0, ptr %3, align 8, !tbaa !37
  store ptr %1, ptr %4, align 8, !tbaa !39
  call void @llvm.lifetime.start.p0(i64 8, ptr %5) #8
  %8 = load ptr, ptr %4, align 8, !tbaa !39
  store ptr %8, ptr %5, align 8, !tbaa !40
  call void @llvm.lifetime.start.p0(i64 8, ptr %6) #8
  store ptr null, ptr %6, align 8, !tbaa !21
  %9 = load ptr, ptr %3, align 8, !tbaa !37
  %10 = getelementptr inbounds nuw %struct.obj_name_st, ptr %9, i32 0, i32 2
  %11 = load ptr, ptr %10, align 8, !tbaa !42
  %12 = call ptr @strstr(ptr noundef %11, ptr noundef @.str.102) #9
  %13 = icmp ne ptr %12, null
  br i1 %13, label %20, label %14

14:                                               ; preds = %2
  %15 = load ptr, ptr %3, align 8, !tbaa !37
  %16 = getelementptr inbounds nuw %struct.obj_name_st, ptr %15, i32 0, i32 2
  %17 = load ptr, ptr %16, align 8, !tbaa !42
  %18 = call ptr @strstr(ptr noundef %17, ptr noundef @.str.103) #9
  %19 = icmp ne ptr %18, null
  br i1 %19, label %20, label %21

20:                                               ; preds = %14, %2
  store i32 1, ptr %7, align 4
  br label %80

21:                                               ; preds = %14
  %22 = call ptr @__ctype_b_loc() #10
  %23 = load ptr, ptr %22, align 8, !tbaa !44
  %24 = load ptr, ptr %3, align 8, !tbaa !37
  %25 = getelementptr inbounds nuw %struct.obj_name_st, ptr %24, i32 0, i32 2
  %26 = load ptr, ptr %25, align 8, !tbaa !42
  %27 = load i8, ptr %26, align 1, !tbaa !46
  %28 = zext i8 %27 to i32
  %29 = sext i32 %28 to i64
  %30 = getelementptr inbounds i16, ptr %23, i64 %29
  %31 = load i16, ptr %30, align 2, !tbaa !47
  %32 = zext i16 %31 to i32
  %33 = and i32 %32, 512
  %34 = icmp ne i32 %33, 0
  br i1 %34, label %36, label %35

35:                                               ; preds = %21
  store i32 1, ptr %7, align 4
  br label %80

36:                                               ; preds = %21
  %37 = call ptr @app_get0_libctx()
  %38 = load ptr, ptr %3, align 8, !tbaa !37
  %39 = getelementptr inbounds nuw %struct.obj_name_st, ptr %38, i32 0, i32 2
  %40 = load ptr, ptr %39, align 8, !tbaa !42
  %41 = call ptr @app_get0_propq()
  %42 = call ptr @EVP_MD_fetch(ptr noundef %37, ptr noundef %40, ptr noundef %41)
  store ptr %42, ptr %6, align 8, !tbaa !21
  %43 = load ptr, ptr %6, align 8, !tbaa !21
  %44 = icmp eq ptr %43, null
  br i1 %44, label %45, label %53

45:                                               ; preds = %36
  %46 = load ptr, ptr %3, align 8, !tbaa !37
  %47 = getelementptr inbounds nuw %struct.obj_name_st, ptr %46, i32 0, i32 2
  %48 = load ptr, ptr %47, align 8, !tbaa !42
  %49 = call ptr @EVP_get_digestbyname(ptr noundef %48)
  %50 = icmp eq ptr %49, null
  br i1 %50, label %51, label %52

51:                                               ; preds = %45
  store i32 1, ptr %7, align 4
  br label %80

52:                                               ; preds = %45
  br label %53

53:                                               ; preds = %52, %36
  %54 = load ptr, ptr %5, align 8, !tbaa !40
  %55 = getelementptr inbounds nuw %struct.doall_dgst_digests, ptr %54, i32 0, i32 0
  %56 = load ptr, ptr %55, align 8, !tbaa !25
  %57 = load ptr, ptr %3, align 8, !tbaa !37
  %58 = getelementptr inbounds nuw %struct.obj_name_st, ptr %57, i32 0, i32 2
  %59 = load ptr, ptr %58, align 8, !tbaa !42
  %60 = call i32 (ptr, ptr, ...) @BIO_printf(ptr noundef %56, ptr noundef @.str.104, ptr noundef %59)
  %61 = load ptr, ptr %5, align 8, !tbaa !40
  %62 = getelementptr inbounds nuw %struct.doall_dgst_digests, ptr %61, i32 0, i32 1
  %63 = load i32, ptr %62, align 8, !tbaa !27
  %64 = add nsw i32 %63, 1
  store i32 %64, ptr %62, align 8, !tbaa !27
  %65 = icmp eq i32 %64, 3
  br i1 %65, label %66, label %73

66:                                               ; preds = %53
  %67 = load ptr, ptr %5, align 8, !tbaa !40
  %68 = getelementptr inbounds nuw %struct.doall_dgst_digests, ptr %67, i32 0, i32 0
  %69 = load ptr, ptr %68, align 8, !tbaa !25
  %70 = call i32 (ptr, ptr, ...) @BIO_printf(ptr noundef %69, ptr noundef @.str.72)
  %71 = load ptr, ptr %5, align 8, !tbaa !40
  %72 = getelementptr inbounds nuw %struct.doall_dgst_digests, ptr %71, i32 0, i32 1
  store i32 0, ptr %72, align 8, !tbaa !27
  br label %78

73:                                               ; preds = %53
  %74 = load ptr, ptr %5, align 8, !tbaa !40
  %75 = getelementptr inbounds nuw %struct.doall_dgst_digests, ptr %74, i32 0, i32 0
  %76 = load ptr, ptr %75, align 8, !tbaa !25
  %77 = call i32 (ptr, ptr, ...) @BIO_printf(ptr noundef %76, ptr noundef @.str.105)
  br label %78

78:                                               ; preds = %73, %66
  %79 = load ptr, ptr %6, align 8, !tbaa !21
  call void @EVP_MD_free(ptr noundef %79)
  store i32 0, ptr %7, align 4
  br label %80

80:                                               ; preds = %78, %51, %35, %20
  call void @llvm.lifetime.end.p0(i64 8, ptr %6) #8
  call void @llvm.lifetime.end.p0(i64 8, ptr %5) #8
  %81 = load i32, ptr %7, align 4
  switch i32 %81, label %83 [
    i32 0, label %82
    i32 1, label %82
  ]

82:                                               ; preds = %80, %80
  ret void

83:                                               ; preds = %80
  unreachable
}