; Function Attrs: nounwind uwtable
define internal void @show_digests(ptr noundef readonly captures(none) %0, ptr noundef captures(none) %1) #0 {
  %3 = getelementptr inbounds nuw i8, ptr %0, i64 8
  %4 = load ptr, ptr %3, align 8, !tbaa !29
  %5 = tail call ptr @strstr(ptr noundef nonnull dereferenceable(1) %4, ptr noundef nonnull dereferenceable(1) @.str.102) #9
  %.not = icmp eq ptr %5, null
  br i1 %.not, label %6, label %40

6:                                                ; preds = %2
  %7 = tail call ptr @strstr(ptr noundef nonnull dereferenceable(1) %4, ptr noundef nonnull dereferenceable(1) @.str.103) #9
  %.not14 = icmp eq ptr %7, null
  br i1 %.not14, label %8, label %40

8:                                                ; preds = %6
  %9 = tail call ptr @__ctype_b_loc() #11
  %10 = load ptr, ptr %9, align 8, !tbaa !31
  %11 = load i8, ptr %4, align 1, !tbaa !33
  %12 = zext i8 %11 to i64
  %13 = getelementptr inbounds nuw i16, ptr %10, i64 %12
  %14 = load i16, ptr %13, align 2, !tbaa !34
  %15 = and i16 %14, 512
  %.not15 = icmp eq i16 %15, 0
  br i1 %.not15, label %40, label %16

16:                                               ; preds = %8
  %17 = tail call ptr @app_get0_libctx() #8
  %18 = load ptr, ptr %3, align 8, !tbaa !29
  %19 = tail call ptr @app_get0_propq() #8
  %20 = tail call ptr @EVP_MD_fetch(ptr noundef %17, ptr noundef %18, ptr noundef %19) #8
  %21 = icmp eq ptr %20, null
  br i1 %21, label %22, label %26

22:                                               ; preds = %16
  %23 = load ptr, ptr %3, align 8, !tbaa !29
  %24 = tail call ptr @EVP_get_digestbyname(ptr noundef %23) #8
  %25 = icmp eq ptr %24, null
  br i1 %25, label %40, label %26

26:                                               ; preds = %22, %16
  %27 = load ptr, ptr %1, align 8, !tbaa !17
  %28 = load ptr, ptr %3, align 8, !tbaa !29
  %29 = tail call i32 (ptr, ptr, ...) @BIO_printf(ptr noundef %27, ptr noundef nonnull @.str.104, ptr noundef %28) #8
  %30 = getelementptr inbounds nuw i8, ptr %1, i64 8
  %31 = load i32, ptr %30, align 8, !tbaa !19
  %32 = add nsw i32 %31, 1
  store i32 %32, ptr %30, align 8, !tbaa !19
  %33 = icmp eq i32 %32, 3
  %34 = load ptr, ptr %1, align 8, !tbaa !17
  br i1 %33, label %35, label %37

35:                                               ; preds = %26
  %36 = tail call i32 (ptr, ptr, ...) @BIO_printf(ptr noundef %34, ptr noundef nonnull @.str.72) #8
  store i32 0, ptr %30, align 8, !tbaa !19
  br label %39

37:                                               ; preds = %26
  %38 = tail call i32 (ptr, ptr, ...) @BIO_printf(ptr noundef %34, ptr noundef nonnull @.str.105) #8
  br label %39

39:                                               ; preds = %37, %35
  tail call void @EVP_MD_free(ptr noundef %20) #8
  br label %40

40:                                               ; preds = %22, %8, %2, %6, %39
  ret void
}